; Function Attrs: nounwind uwtable
define ptr @glfwGetProcAddress(ptr noundef %0) local_unnamed_addr #0 {
  %2 = load i32, ptr @_glfw, align 8, !tbaa !78
  %.not = icmp eq i32 %2, 0
  br i1 %.not, label %3, label %4

3:                                                ; preds = %1
  tail call void (i32, ptr, ...) @_glfwInputError(i32 noundef 65537, ptr noundef null) #7
  br label %11

4:                                                ; preds = %1
  %5 = tail call ptr @_glfwPlatformGetTls(ptr noundef nonnull getelementptr inbounds nuw (i8, ptr @_glfw, i64 133412)) #7
  %.not5 = icmp eq ptr %5, null
  br i1 %.not5, label %6, label %7

6:                                                ; preds = %4
  tail call void (i32, ptr, ...) @_glfwInputError(i32 noundef 65538, ptr noundef nonnull @.str.36) #7
  br label %11

7:                                                ; preds = %4
  %8 = getelementptr inbounds nuw i8, ptr %5, i64 632
  %9 = load ptr, ptr %8, align 8, !tbaa !153
  %10 = tail call ptr %9(ptr noundef %0) #7
  br label %11

11:                                               ; preds = %7, %6, %3
  %.0 = phi ptr [ %10, %7 ], [ null, %6 ], [ null, %3 ]
  ret ptr %.0
}